
_test2:     file format elf32-i386


Disassembly of section .text:

00000000 <main>:
#include "types.h"
#include "stat.h"
#include "user.h"

int main(int argc, char *argv[])
{
   0:	55                   	push   %ebp
   1:	89 e5                	mov    %esp,%ebp
   3:	83 e4 f0             	and    $0xfffffff0,%esp
   6:	83 ec 10             	sub    $0x10,%esp
  int i, j;
  int beginningPriority = 30;
  const int loop = 1000;

  setPrior(beginningPriority); // set a priority value
   9:	c7 04 24 1e 00 00 00 	movl   $0x1e,(%esp)
  10:	e8 ad 03 00 00       	call   3c2 <setPrior>
  15:	ba e8 03 00 00       	mov    $0x3e8,%edx
  1a:	8d b6 00 00 00 00    	lea    0x0(%esi),%esi

  for (i = 0; i < loop; i++)
  {
    asm("nop");
  20:	90                   	nop
  21:	b8 e8 03 00 00       	mov    $0x3e8,%eax
  26:	66 90                	xchg   %ax,%ax

    for (j = 0; j < loop; j++)
      asm("nop");
  28:	90                   	nop
    for (j = 0; j < loop; j++)
  29:	83 e8 01             	sub    $0x1,%eax
  2c:	75 fa                	jne    28 <main+0x28>
  for (i = 0; i < loop; i++)
  2e:	83 ea 01             	sub    $0x1,%edx
  31:	75 ed                	jne    20 <main+0x20>
  }

  printf(1, "Program 2 with pid %d ended.\n",  getpid());
  33:	e8 4a 03 00 00       	call   382 <getpid>
  38:	c7 44 24 04 e6 07 00 	movl   $0x7e6,0x4(%esp)
  3f:	00 
  40:	c7 04 24 01 00 00 00 	movl   $0x1,(%esp)
  47:	89 44 24 08          	mov    %eax,0x8(%esp)
  4b:	e8 30 04 00 00       	call   480 <printf>
  printf(1, "Beginning priority: %d\n", beginningPriority);
  50:	c7 44 24 08 1e 00 00 	movl   $0x1e,0x8(%esp)
  57:	00 
  58:	c7 44 24 04 04 08 00 	movl   $0x804,0x4(%esp)
  5f:	00 
  60:	c7 04 24 01 00 00 00 	movl   $0x1,(%esp)
  67:	e8 14 04 00 00       	call   480 <printf>
  printf(1, "Ending priority: %d\n", getPrior());
  6c:	e8 49 03 00 00       	call   3ba <getPrior>
  71:	c7 44 24 04 1c 08 00 	movl   $0x81c,0x4(%esp)
  78:	00 
  79:	c7 04 24 01 00 00 00 	movl   $0x1,(%esp)
  80:	89 44 24 08          	mov    %eax,0x8(%esp)
  84:	e8 f7 03 00 00       	call   480 <printf>
  printf(1, "Turn time: %d\n", getTurnTime());
  89:	e8 44 03 00 00       	call   3d2 <getTurnTime>
  8e:	c7 44 24 04 31 08 00 	movl   $0x831,0x4(%esp)
  95:	00 
  96:	c7 04 24 01 00 00 00 	movl   $0x1,(%esp)
  9d:	89 44 24 08          	mov    %eax,0x8(%esp)
  a1:	e8 da 03 00 00       	call   480 <printf>
  printf(1, "Wait time: %d\n", getWaitTime());
  a6:	e8 1f 03 00 00       	call   3ca <getWaitTime>
  ab:	c7 44 24 04 40 08 00 	movl   $0x840,0x4(%esp)
  b2:	00 
  b3:	c7 04 24 01 00 00 00 	movl   $0x1,(%esp)
  ba:	89 44 24 08          	mov    %eax,0x8(%esp)
  be:	e8 bd 03 00 00       	call   480 <printf>

  exitStatus(0);
  c3:	c7 04 24 00 00 00 00 	movl   $0x0,(%esp)
  ca:	e8 d3 02 00 00       	call   3a2 <exitStatus>
  return 0;
}
  cf:	31 c0                	xor    %eax,%eax
  d1:	c9                   	leave  
  d2:	c3                   	ret    
  d3:	66 90                	xchg   %ax,%ax
  d5:	66 90                	xchg   %ax,%ax
  d7:	66 90                	xchg   %ax,%ax
  d9:	66 90                	xchg   %ax,%ax
  db:	66 90                	xchg   %ax,%ax
  dd:	66 90                	xchg   %ax,%ax
  df:	90                   	nop

000000e0 <strcpy>:
#include "user.h"
#include "x86.h"

char*
strcpy(char *s, const char *t)
{
  e0:	55                   	push   %ebp
  e1:	89 e5                	mov    %esp,%ebp
  e3:	8b 45 08             	mov    0x8(%ebp),%eax
  e6:	8b 4d 0c             	mov    0xc(%ebp),%ecx
  e9:	53                   	push   %ebx
  char *os;

  os = s;
  while((*s++ = *t++) != 0)
  ea:	89 c2                	mov    %eax,%edx
  ec:	8d 74 26 00          	lea    0x0(%esi,%eiz,1),%esi
  f0:	83 c1 01             	add    $0x1,%ecx
  f3:	0f b6 59 ff          	movzbl -0x1(%ecx),%ebx
  f7:	83 c2 01             	add    $0x1,%edx
  fa:	84 db                	test   %bl,%bl
  fc:	88 5a ff             	mov    %bl,-0x1(%edx)
  ff:	75 ef                	jne    f0 <strcpy+0x10>
    ;
  return os;
}
 101:	5b                   	pop    %ebx
 102:	5d                   	pop    %ebp
 103:	c3                   	ret    
 104:	8d b6 00 00 00 00    	lea    0x0(%esi),%esi
 10a:	8d bf 00 00 00 00    	lea    0x0(%edi),%edi

00000110 <strcmp>:

int
strcmp(const char *p, const char *q)
{
 110:	55                   	push   %ebp
 111:	89 e5                	mov    %esp,%ebp
 113:	8b 55 08             	mov    0x8(%ebp),%edx
 116:	53                   	push   %ebx
 117:	8b 4d 0c             	mov    0xc(%ebp),%ecx
  while(*p && *p == *q)
 11a:	0f b6 02             	movzbl (%edx),%eax
 11d:	84 c0                	test   %al,%al
 11f:	74 2d                	je     14e <strcmp+0x3e>
 121:	0f b6 19             	movzbl (%ecx),%ebx
 124:	38 d8                	cmp    %bl,%al
 126:	74 0e                	je     136 <strcmp+0x26>
 128:	eb 2b                	jmp    155 <strcmp+0x45>
 12a:	8d b6 00 00 00 00    	lea    0x0(%esi),%esi
 130:	38 c8                	cmp    %cl,%al
 132:	75 15                	jne    149 <strcmp+0x39>
    p++, q++;
 134:	89 d9                	mov    %ebx,%ecx
 136:	83 c2 01             	add    $0x1,%edx
  while(*p && *p == *q)
 139:	0f b6 02             	movzbl (%edx),%eax
    p++, q++;
 13c:	8d 59 01             	lea    0x1(%ecx),%ebx
  while(*p && *p == *q)
 13f:	0f b6 49 01          	movzbl 0x1(%ecx),%ecx
 143:	84 c0                	test   %al,%al
 145:	75 e9                	jne    130 <strcmp+0x20>
 147:	31 c0                	xor    %eax,%eax
  return (uchar)*p - (uchar)*q;
 149:	29 c8                	sub    %ecx,%eax
}
 14b:	5b                   	pop    %ebx
 14c:	5d                   	pop    %ebp
 14d:	c3                   	ret    
 14e:	0f b6 09             	movzbl (%ecx),%ecx
  while(*p && *p == *q)
 151:	31 c0                	xor    %eax,%eax
 153:	eb f4                	jmp    149 <strcmp+0x39>
 155:	0f b6 cb             	movzbl %bl,%ecx
 158:	eb ef                	jmp    149 <strcmp+0x39>
 15a:	8d b6 00 00 00 00    	lea    0x0(%esi),%esi

00000160 <strlen>:

uint
strlen(const char *s)
{
 160:	55                   	push   %ebp
 161:	89 e5                	mov    %esp,%ebp
 163:	8b 4d 08             	mov    0x8(%ebp),%ecx
  int n;

  for(n = 0; s[n]; n++)
 166:	80 39 00             	cmpb   $0x0,(%ecx)
 169:	74 12                	je     17d <strlen+0x1d>
 16b:	31 d2                	xor    %edx,%edx
 16d:	8d 76 00             	lea    0x0(%esi),%esi
 170:	83 c2 01             	add    $0x1,%edx
 173:	80 3c 11 00          	cmpb   $0x0,(%ecx,%edx,1)
 177:	89 d0                	mov    %edx,%eax
 179:	75 f5                	jne    170 <strlen+0x10>
    ;
  return n;
}
 17b:	5d                   	pop    %ebp
 17c:	c3                   	ret    
  for(n = 0; s[n]; n++)
 17d:	31 c0                	xor    %eax,%eax
}
 17f:	5d                   	pop    %ebp
 180:	c3                   	ret    
 181:	eb 0d                	jmp    190 <memset>
 183:	90                   	nop
 184:	90                   	nop
 185:	90                   	nop
 186:	90                   	nop
 187:	90                   	nop
 188:	90                   	nop
 189:	90                   	nop
 18a:	90                   	nop
 18b:	90                   	nop
 18c:	90                   	nop
 18d:	90                   	nop
 18e:	90                   	nop
 18f:	90                   	nop

00000190 <memset>:

void*
memset(void *dst, int c, uint n)
{
 190:	55                   	push   %ebp
 191:	89 e5                	mov    %esp,%ebp
 193:	8b 55 08             	mov    0x8(%ebp),%edx
 196:	57                   	push   %edi
}

static inline void
stosb(void *addr, int data, int cnt)
{
  asm volatile("cld; rep stosb" :
 197:	8b 4d 10             	mov    0x10(%ebp),%ecx
 19a:	8b 45 0c             	mov    0xc(%ebp),%eax
 19d:	89 d7                	mov    %edx,%edi
 19f:	fc                   	cld    
 1a0:	f3 aa                	rep stos %al,%es:(%edi)
  stosb(dst, c, n);
  return dst;
}
 1a2:	89 d0                	mov    %edx,%eax
 1a4:	5f                   	pop    %edi
 1a5:	5d                   	pop    %ebp
 1a6:	c3                   	ret    
 1a7:	89 f6                	mov    %esi,%esi
 1a9:	8d bc 27 00 00 00 00 	lea    0x0(%edi,%eiz,1),%edi

000001b0 <strchr>:

char*
strchr(const char *s, char c)
{
 1b0:	55                   	push   %ebp
 1b1:	89 e5                	mov    %esp,%ebp
 1b3:	8b 45 08             	mov    0x8(%ebp),%eax
 1b6:	53                   	push   %ebx
 1b7:	8b 55 0c             	mov    0xc(%ebp),%edx
  for(; *s; s++)
 1ba:	0f b6 18             	movzbl (%eax),%ebx
 1bd:	84 db                	test   %bl,%bl
 1bf:	74 1d                	je     1de <strchr+0x2e>
    if(*s == c)
 1c1:	38 d3                	cmp    %dl,%bl
 1c3:	89 d1                	mov    %edx,%ecx
 1c5:	75 0d                	jne    1d4 <strchr+0x24>
 1c7:	eb 17                	jmp    1e0 <strchr+0x30>
 1c9:	8d b4 26 00 00 00 00 	lea    0x0(%esi,%eiz,1),%esi
 1d0:	38 ca                	cmp    %cl,%dl
 1d2:	74 0c                	je     1e0 <strchr+0x30>
  for(; *s; s++)
 1d4:	83 c0 01             	add    $0x1,%eax
 1d7:	0f b6 10             	movzbl (%eax),%edx
 1da:	84 d2                	test   %dl,%dl
 1dc:	75 f2                	jne    1d0 <strchr+0x20>
      return (char*)s;
  return 0;
 1de:	31 c0                	xor    %eax,%eax
}
 1e0:	5b                   	pop    %ebx
 1e1:	5d                   	pop    %ebp
 1e2:	c3                   	ret    
 1e3:	8d b6 00 00 00 00    	lea    0x0(%esi),%esi
 1e9:	8d bc 27 00 00 00 00 	lea    0x0(%edi,%eiz,1),%edi

000001f0 <gets>:

char*
gets(char *buf, int max)
{
 1f0:	55                   	push   %ebp
 1f1:	89 e5                	mov    %esp,%ebp
 1f3:	57                   	push   %edi
 1f4:	56                   	push   %esi
  int i, cc;
  char c;

  for(i=0; i+1 < max; ){
 1f5:	31 f6                	xor    %esi,%esi
{
 1f7:	53                   	push   %ebx
 1f8:	83 ec 2c             	sub    $0x2c,%esp
    cc = read(0, &c, 1);
 1fb:	8d 7d e7             	lea    -0x19(%ebp),%edi
  for(i=0; i+1 < max; ){
 1fe:	eb 31                	jmp    231 <gets+0x41>
    cc = read(0, &c, 1);
 200:	c7 44 24 08 01 00 00 	movl   $0x1,0x8(%esp)
 207:	00 
 208:	89 7c 24 04          	mov    %edi,0x4(%esp)
 20c:	c7 04 24 00 00 00 00 	movl   $0x0,(%esp)
 213:	e8 02 01 00 00       	call   31a <read>
    if(cc < 1)
 218:	85 c0                	test   %eax,%eax
 21a:	7e 1d                	jle    239 <gets+0x49>
      break;
    buf[i++] = c;
 21c:	0f b6 45 e7          	movzbl -0x19(%ebp),%eax
  for(i=0; i+1 < max; ){
 220:	89 de                	mov    %ebx,%esi
    buf[i++] = c;
 222:	8b 55 08             	mov    0x8(%ebp),%edx
    if(c == '\n' || c == '\r')
 225:	3c 0d                	cmp    $0xd,%al
    buf[i++] = c;
 227:	88 44 1a ff          	mov    %al,-0x1(%edx,%ebx,1)
    if(c == '\n' || c == '\r')
 22b:	74 0c                	je     239 <gets+0x49>
 22d:	3c 0a                	cmp    $0xa,%al
 22f:	74 08                	je     239 <gets+0x49>
  for(i=0; i+1 < max; ){
 231:	8d 5e 01             	lea    0x1(%esi),%ebx
 234:	3b 5d 0c             	cmp    0xc(%ebp),%ebx
 237:	7c c7                	jl     200 <gets+0x10>
      break;
  }
  buf[i] = '\0';
 239:	8b 45 08             	mov    0x8(%ebp),%eax
 23c:	c6 04 30 00          	movb   $0x0,(%eax,%esi,1)
  return buf;
}
 240:	83 c4 2c             	add    $0x2c,%esp
 243:	5b                   	pop    %ebx
 244:	5e                   	pop    %esi
 245:	5f                   	pop    %edi
 246:	5d                   	pop    %ebp
 247:	c3                   	ret    
 248:	90                   	nop
 249:	8d b4 26 00 00 00 00 	lea    0x0(%esi,%eiz,1),%esi

00000250 <stat>:

int
stat(const char *n, struct stat *st)
{
 250:	55                   	push   %ebp
 251:	89 e5                	mov    %esp,%ebp
 253:	56                   	push   %esi
 254:	53                   	push   %ebx
 255:	83 ec 10             	sub    $0x10,%esp
  int fd;
  int r;

  fd = open(n, O_RDONLY);
 258:	8b 45 08             	mov    0x8(%ebp),%eax
 25b:	c7 44 24 04 00 00 00 	movl   $0x0,0x4(%esp)
 262:	00 
 263:	89 04 24             	mov    %eax,(%esp)
 266:	e8 d7 00 00 00       	call   342 <open>
  if(fd < 0)
 26b:	85 c0                	test   %eax,%eax
  fd = open(n, O_RDONLY);
 26d:	89 c3                	mov    %eax,%ebx
  if(fd < 0)
 26f:	78 27                	js     298 <stat+0x48>
    return -1;
  r = fstat(fd, st);
 271:	8b 45 0c             	mov    0xc(%ebp),%eax
 274:	89 1c 24             	mov    %ebx,(%esp)
 277:	89 44 24 04          	mov    %eax,0x4(%esp)
 27b:	e8 da 00 00 00       	call   35a <fstat>
  close(fd);
 280:	89 1c 24             	mov    %ebx,(%esp)
  r = fstat(fd, st);
 283:	89 c6                	mov    %eax,%esi
  close(fd);
 285:	e8 a0 00 00 00       	call   32a <close>
  return r;
 28a:	89 f0                	mov    %esi,%eax
}
 28c:	83 c4 10             	add    $0x10,%esp
 28f:	5b                   	pop    %ebx
 290:	5e                   	pop    %esi
 291:	5d                   	pop    %ebp
 292:	c3                   	ret    
 293:	90                   	nop
 294:	8d 74 26 00          	lea    0x0(%esi,%eiz,1),%esi
    return -1;
 298:	b8 ff ff ff ff       	mov    $0xffffffff,%eax
 29d:	eb ed                	jmp    28c <stat+0x3c>
 29f:	90                   	nop

000002a0 <atoi>:

int
atoi(const char *s)
{
 2a0:	55                   	push   %ebp
 2a1:	89 e5                	mov    %esp,%ebp
 2a3:	8b 4d 08             	mov    0x8(%ebp),%ecx
 2a6:	53                   	push   %ebx
  int n;

  n = 0;
  while('0' <= *s && *s <= '9')
 2a7:	0f be 11             	movsbl (%ecx),%edx
 2aa:	8d 42 d0             	lea    -0x30(%edx),%eax
 2ad:	3c 09                	cmp    $0x9,%al
  n = 0;
 2af:	b8 00 00 00 00       	mov    $0x0,%eax
  while('0' <= *s && *s <= '9')
 2b4:	77 17                	ja     2cd <atoi+0x2d>
 2b6:	66 90                	xchg   %ax,%ax
    n = n*10 + *s++ - '0';
 2b8:	83 c1 01             	add    $0x1,%ecx
 2bb:	8d 04 80             	lea    (%eax,%eax,4),%eax
 2be:	8d 44 42 d0          	lea    -0x30(%edx,%eax,2),%eax
  while('0' <= *s && *s <= '9')
 2c2:	0f be 11             	movsbl (%ecx),%edx
 2c5:	8d 5a d0             	lea    -0x30(%edx),%ebx
 2c8:	80 fb 09             	cmp    $0x9,%bl
 2cb:	76 eb                	jbe    2b8 <atoi+0x18>
  return n;
}
 2cd:	5b                   	pop    %ebx
 2ce:	5d                   	pop    %ebp
 2cf:	c3                   	ret    

000002d0 <memmove>:

void*
memmove(void *vdst, const void *vsrc, int n)
{
 2d0:	55                   	push   %ebp
  char *dst;
  const char *src;

  dst = vdst;
  src = vsrc;
  while(n-- > 0)
 2d1:	31 d2                	xor    %edx,%edx
{
 2d3:	89 e5                	mov    %esp,%ebp
 2d5:	56                   	push   %esi
 2d6:	8b 45 08             	mov    0x8(%ebp),%eax
 2d9:	53                   	push   %ebx
 2da:	8b 5d 10             	mov    0x10(%ebp),%ebx
 2dd:	8b 75 0c             	mov    0xc(%ebp),%esi
  while(n-- > 0)
 2e0:	85 db                	test   %ebx,%ebx
 2e2:	7e 12                	jle    2f6 <memmove+0x26>
 2e4:	8d 74 26 00          	lea    0x0(%esi,%eiz,1),%esi
    *dst++ = *src++;
 2e8:	0f b6 0c 16          	movzbl (%esi,%edx,1),%ecx
 2ec:	88 0c 10             	mov    %cl,(%eax,%edx,1)
 2ef:	83 c2 01             	add    $0x1,%edx
  while(n-- > 0)
 2f2:	39 da                	cmp    %ebx,%edx
 2f4:	75 f2                	jne    2e8 <memmove+0x18>
  return vdst;
}
 2f6:	5b                   	pop    %ebx
 2f7:	5e                   	pop    %esi
 2f8:	5d                   	pop    %ebp
 2f9:	c3                   	ret    

000002fa <fork>:
  name: \
    movl $SYS_ ## name, %eax; \
    int $T_SYSCALL; \
    ret

SYSCALL(fork)
 2fa:	b8 01 00 00 00       	mov    $0x1,%eax
 2ff:	cd 40                	int    $0x40
 301:	c3                   	ret    

00000302 <exit>:
SYSCALL(exit)
 302:	b8 02 00 00 00       	mov    $0x2,%eax
 307:	cd 40                	int    $0x40
 309:	c3                   	ret    

0000030a <wait>:
SYSCALL(wait)
 30a:	b8 03 00 00 00       	mov    $0x3,%eax
 30f:	cd 40                	int    $0x40
 311:	c3                   	ret    

00000312 <pipe>:
SYSCALL(pipe)
 312:	b8 04 00 00 00       	mov    $0x4,%eax
 317:	cd 40                	int    $0x40
 319:	c3                   	ret    

0000031a <read>:
SYSCALL(read)
 31a:	b8 05 00 00 00       	mov    $0x5,%eax
 31f:	cd 40                	int    $0x40
 321:	c3                   	ret    

00000322 <write>:
SYSCALL(write)
 322:	b8 10 00 00 00       	mov    $0x10,%eax
 327:	cd 40                	int    $0x40
 329:	c3                   	ret    

0000032a <close>:
SYSCALL(close)
 32a:	b8 15 00 00 00       	mov    $0x15,%eax
 32f:	cd 40                	int    $0x40
 331:	c3                   	ret    

00000332 <kill>:
SYSCALL(kill)
 332:	b8 06 00 00 00       	mov    $0x6,%eax
 337:	cd 40                	int    $0x40
 339:	c3                   	ret    

0000033a <exec>:
SYSCALL(exec)
 33a:	b8 07 00 00 00       	mov    $0x7,%eax
 33f:	cd 40                	int    $0x40
 341:	c3                   	ret    

00000342 <open>:
SYSCALL(open)
 342:	b8 0f 00 00 00       	mov    $0xf,%eax
 347:	cd 40                	int    $0x40
 349:	c3                   	ret    

0000034a <mknod>:
SYSCALL(mknod)
 34a:	b8 11 00 00 00       	mov    $0x11,%eax
 34f:	cd 40                	int    $0x40
 351:	c3                   	ret    

00000352 <unlink>:
SYSCALL(unlink)
 352:	b8 12 00 00 00       	mov    $0x12,%eax
 357:	cd 40                	int    $0x40
 359:	c3                   	ret    

0000035a <fstat>:
SYSCALL(fstat)
 35a:	b8 08 00 00 00       	mov    $0x8,%eax
 35f:	cd 40                	int    $0x40
 361:	c3                   	ret    

00000362 <link>:
SYSCALL(link)
 362:	b8 13 00 00 00       	mov    $0x13,%eax
 367:	cd 40                	int    $0x40
 369:	c3                   	ret    

0000036a <mkdir>:
SYSCALL(mkdir)
 36a:	b8 14 00 00 00       	mov    $0x14,%eax
 36f:	cd 40                	int    $0x40
 371:	c3                   	ret    

00000372 <chdir>:
SYSCALL(chdir)
 372:	b8 09 00 00 00       	mov    $0x9,%eax
 377:	cd 40                	int    $0x40
 379:	c3                   	ret    

0000037a <dup>:
SYSCALL(dup)
 37a:	b8 0a 00 00 00       	mov    $0xa,%eax
 37f:	cd 40                	int    $0x40
 381:	c3                   	ret    

00000382 <getpid>:
SYSCALL(getpid)
 382:	b8 0b 00 00 00       	mov    $0xb,%eax
 387:	cd 40                	int    $0x40
 389:	c3                   	ret    

0000038a <sbrk>:
SYSCALL(sbrk)
 38a:	b8 0c 00 00 00       	mov    $0xc,%eax
 38f:	cd 40                	int    $0x40
 391:	c3                   	ret    

00000392 <sleep>:
SYSCALL(sleep)
 392:	b8 0d 00 00 00       	mov    $0xd,%eax
 397:	cd 40                	int    $0x40
 399:	c3                   	ret    

0000039a <uptime>:
SYSCALL(uptime)
 39a:	b8 0e 00 00 00       	mov    $0xe,%eax
 39f:	cd 40                	int    $0x40
 3a1:	c3                   	ret    

000003a2 <exitStatus>:
SYSCALL(exitStatus)   //cs153_lab1
 3a2:	b8 16 00 00 00       	mov    $0x16,%eax
 3a7:	cd 40                	int    $0x40
 3a9:	c3                   	ret    

000003aa <waitStatus>:
SYSCALL(waitStatus)   //cs153_lab1
 3aa:	b8 17 00 00 00       	mov    $0x17,%eax
 3af:	cd 40                	int    $0x40
 3b1:	c3                   	ret    

000003b2 <waitpid>:
SYSCALL(waitpid)      //cs153_lab1
 3b2:	b8 18 00 00 00       	mov    $0x18,%eax
 3b7:	cd 40                	int    $0x40
 3b9:	c3                   	ret    

000003ba <getPrior>:
SYSCALL(getPrior)     //add lab2
 3ba:	b8 1a 00 00 00       	mov    $0x1a,%eax
 3bf:	cd 40                	int    $0x40
 3c1:	c3                   	ret    

000003c2 <setPrior>:
SYSCALL(setPrior)     //add lab2
 3c2:	b8 1b 00 00 00       	mov    $0x1b,%eax
 3c7:	cd 40                	int    $0x40
 3c9:	c3                   	ret    

000003ca <getWaitTime>:
SYSCALL(getWaitTime)  //add lab2
 3ca:	b8 1c 00 00 00       	mov    $0x1c,%eax
 3cf:	cd 40                	int    $0x40
 3d1:	c3                   	ret    

000003d2 <getTurnTime>:
 3d2:	b8 1d 00 00 00       	mov    $0x1d,%eax
 3d7:	cd 40                	int    $0x40
 3d9:	c3                   	ret    
 3da:	66 90                	xchg   %ax,%ax
 3dc:	66 90                	xchg   %ax,%ax
 3de:	66 90                	xchg   %ax,%ax

000003e0 <printint>:
  write(fd, &c, 1);
}

static void
printint(int fd, int xx, int base, int sgn)
{
 3e0:	55                   	push   %ebp
 3e1:	89 e5                	mov    %esp,%ebp
 3e3:	57                   	push   %edi
 3e4:	56                   	push   %esi
 3e5:	89 c6                	mov    %eax,%esi
 3e7:	53                   	push   %ebx
 3e8:	83 ec 4c             	sub    $0x4c,%esp
  char buf[16];
  int i, neg;
  uint x;

  neg = 0;
  if(sgn && xx < 0){
 3eb:	8b 5d 08             	mov    0x8(%ebp),%ebx
 3ee:	85 db                	test   %ebx,%ebx
 3f0:	74 09                	je     3fb <printint+0x1b>
 3f2:	89 d0                	mov    %edx,%eax
 3f4:	c1 e8 1f             	shr    $0x1f,%eax
 3f7:	84 c0                	test   %al,%al
 3f9:	75 75                	jne    470 <printint+0x90>
    neg = 1;
    x = -xx;
  } else {
    x = xx;
 3fb:	89 d0                	mov    %edx,%eax
  neg = 0;
 3fd:	c7 45 c4 00 00 00 00 	movl   $0x0,-0x3c(%ebp)
 404:	89 75 c0             	mov    %esi,-0x40(%ebp)
  }

  i = 0;
 407:	31 ff                	xor    %edi,%edi
 409:	89 ce                	mov    %ecx,%esi
 40b:	8d 5d d7             	lea    -0x29(%ebp),%ebx
 40e:	eb 02                	jmp    412 <printint+0x32>
  do{
    buf[i++] = digits[x % base];
 410:	89 cf                	mov    %ecx,%edi
 412:	31 d2                	xor    %edx,%edx
 414:	f7 f6                	div    %esi
 416:	8d 4f 01             	lea    0x1(%edi),%ecx
 419:	0f b6 92 56 08 00 00 	movzbl 0x856(%edx),%edx
  }while((x /= base) != 0);
 420:	85 c0                	test   %eax,%eax
    buf[i++] = digits[x % base];
 422:	88 14 0b             	mov    %dl,(%ebx,%ecx,1)
  }while((x /= base) != 0);
 425:	75 e9                	jne    410 <printint+0x30>
  if(neg)
 427:	8b 55 c4             	mov    -0x3c(%ebp),%edx
    buf[i++] = digits[x % base];
 42a:	89 c8                	mov    %ecx,%eax
 42c:	8b 75 c0             	mov    -0x40(%ebp),%esi
  if(neg)
 42f:	85 d2                	test   %edx,%edx
 431:	74 08                	je     43b <printint+0x5b>
    buf[i++] = '-';
 433:	8d 4f 02             	lea    0x2(%edi),%ecx
 436:	c6 44 05 d8 2d       	movb   $0x2d,-0x28(%ebp,%eax,1)

  while(--i >= 0)
 43b:	8d 79 ff             	lea    -0x1(%ecx),%edi
 43e:	66 90                	xchg   %ax,%ax
 440:	0f b6 44 3d d8       	movzbl -0x28(%ebp,%edi,1),%eax
 445:	83 ef 01             	sub    $0x1,%edi
  write(fd, &c, 1);
 448:	c7 44 24 08 01 00 00 	movl   $0x1,0x8(%esp)
 44f:	00 
 450:	89 5c 24 04          	mov    %ebx,0x4(%esp)
 454:	89 34 24             	mov    %esi,(%esp)
 457:	88 45 d7             	mov    %al,-0x29(%ebp)
 45a:	e8 c3 fe ff ff       	call   322 <write>
  while(--i >= 0)
 45f:	83 ff ff             	cmp    $0xffffffff,%edi
 462:	75 dc                	jne    440 <printint+0x60>
    putc(fd, buf[i]);
}
 464:	83 c4 4c             	add    $0x4c,%esp
 467:	5b                   	pop    %ebx
 468:	5e                   	pop    %esi
 469:	5f                   	pop    %edi
 46a:	5d                   	pop    %ebp
 46b:	c3                   	ret    
 46c:	8d 74 26 00          	lea    0x0(%esi,%eiz,1),%esi
    x = -xx;
 470:	89 d0                	mov    %edx,%eax
 472:	f7 d8                	neg    %eax
    neg = 1;
 474:	c7 45 c4 01 00 00 00 	movl   $0x1,-0x3c(%ebp)
 47b:	eb 87                	jmp    404 <printint+0x24>
 47d:	8d 76 00             	lea    0x0(%esi),%esi

00000480 <printf>:

// Print to the given fd. Only understands %d, %x, %p, %s.
void
printf(int fd, const char *fmt, ...)
{
 480:	55                   	push   %ebp
 481:	89 e5                	mov    %esp,%ebp
 483:	57                   	push   %edi
  char *s;
  int c, i, state;
  uint *ap;

  state = 0;
 484:	31 ff                	xor    %edi,%edi
{
 486:	56                   	push   %esi
 487:	53                   	push   %ebx
 488:	83 ec 3c             	sub    $0x3c,%esp
  ap = (uint*)(void*)&fmt + 1;
  for(i = 0; fmt[i]; i++){
 48b:	8b 5d 0c             	mov    0xc(%ebp),%ebx
  ap = (uint*)(void*)&fmt + 1;
 48e:	8d 45 10             	lea    0x10(%ebp),%eax
{
 491:	8b 75 08             	mov    0x8(%ebp),%esi
  ap = (uint*)(void*)&fmt + 1;
 494:	89 45 d4             	mov    %eax,-0x2c(%ebp)
  for(i = 0; fmt[i]; i++){
 497:	0f b6 13             	movzbl (%ebx),%edx
 49a:	83 c3 01             	add    $0x1,%ebx
 49d:	84 d2                	test   %dl,%dl
 49f:	75 39                	jne    4da <printf+0x5a>
 4a1:	e9 c2 00 00 00       	jmp    568 <printf+0xe8>
 4a6:	66 90                	xchg   %ax,%ax
    c = fmt[i] & 0xff;
    if(state == 0){
      if(c == '%'){
 4a8:	83 fa 25             	cmp    $0x25,%edx
 4ab:	0f 84 bf 00 00 00    	je     570 <printf+0xf0>
  write(fd, &c, 1);
 4b1:	8d 45 e2             	lea    -0x1e(%ebp),%eax
 4b4:	c7 44 24 08 01 00 00 	movl   $0x1,0x8(%esp)
 4bb:	00 
 4bc:	89 44 24 04          	mov    %eax,0x4(%esp)
 4c0:	89 34 24             	mov    %esi,(%esp)
        state = '%';
      } else {
        putc(fd, c);
 4c3:	88 55 e2             	mov    %dl,-0x1e(%ebp)
  write(fd, &c, 1);
 4c6:	e8 57 fe ff ff       	call   322 <write>
 4cb:	83 c3 01             	add    $0x1,%ebx
  for(i = 0; fmt[i]; i++){
 4ce:	0f b6 53 ff          	movzbl -0x1(%ebx),%edx
 4d2:	84 d2                	test   %dl,%dl
 4d4:	0f 84 8e 00 00 00    	je     568 <printf+0xe8>
    if(state == 0){
 4da:	85 ff                	test   %edi,%edi
    c = fmt[i] & 0xff;
 4dc:	0f be c2             	movsbl %dl,%eax
    if(state == 0){
 4df:	74 c7                	je     4a8 <printf+0x28>
      }
    } else if(state == '%'){
 4e1:	83 ff 25             	cmp    $0x25,%edi
 4e4:	75 e5                	jne    4cb <printf+0x4b>
      if(c == 'd'){
 4e6:	83 fa 64             	cmp    $0x64,%edx
 4e9:	0f 84 31 01 00 00    	je     620 <printf+0x1a0>
        printint(fd, *ap, 10, 1);
        ap++;
      } else if(c == 'x' || c == 'p'){
 4ef:	25 f7 00 00 00       	and    $0xf7,%eax
 4f4:	83 f8 70             	cmp    $0x70,%eax
 4f7:	0f 84 83 00 00 00    	je     580 <printf+0x100>
        printint(fd, *ap, 16, 0);
        ap++;
      } else if(c == 's'){
 4fd:	83 fa 73             	cmp    $0x73,%edx
 500:	0f 84 a2 00 00 00    	je     5a8 <printf+0x128>
          s = "(null)";
        while(*s != 0){
          putc(fd, *s);
          s++;
        }
      } else if(c == 'c'){
 506:	83 fa 63             	cmp    $0x63,%edx
 509:	0f 84 35 01 00 00    	je     644 <printf+0x1c4>
        putc(fd, *ap);
        ap++;
      } else if(c == '%'){
 50f:	83 fa 25             	cmp    $0x25,%edx
 512:	0f 84 e0 00 00 00    	je     5f8 <printf+0x178>
  write(fd, &c, 1);
 518:	8d 45 e6             	lea    -0x1a(%ebp),%eax
 51b:	83 c3 01             	add    $0x1,%ebx
 51e:	c7 44 24 08 01 00 00 	movl   $0x1,0x8(%esp)
 525:	00 
      } else {
        // Unknown % sequence.  Print it to draw attention.
        putc(fd, '%');
        putc(fd, c);
      }
      state = 0;
 526:	31 ff                	xor    %edi,%edi
  write(fd, &c, 1);
 528:	89 44 24 04          	mov    %eax,0x4(%esp)
 52c:	89 34 24             	mov    %esi,(%esp)
 52f:	89 55 d0             	mov    %edx,-0x30(%ebp)
 532:	c6 45 e6 25          	movb   $0x25,-0x1a(%ebp)
 536:	e8 e7 fd ff ff       	call   322 <write>
        putc(fd, c);
 53b:	8b 55 d0             	mov    -0x30(%ebp),%edx
  write(fd, &c, 1);
 53e:	8d 45 e7             	lea    -0x19(%ebp),%eax
 541:	c7 44 24 08 01 00 00 	movl   $0x1,0x8(%esp)
 548:	00 
 549:	89 44 24 04          	mov    %eax,0x4(%esp)
 54d:	89 34 24             	mov    %esi,(%esp)
        putc(fd, c);
 550:	88 55 e7             	mov    %dl,-0x19(%ebp)
  write(fd, &c, 1);
 553:	e8 ca fd ff ff       	call   322 <write>
  for(i = 0; fmt[i]; i++){
 558:	0f b6 53 ff          	movzbl -0x1(%ebx),%edx
 55c:	84 d2                	test   %dl,%dl
 55e:	0f 85 76 ff ff ff    	jne    4da <printf+0x5a>
 564:	8d 74 26 00          	lea    0x0(%esi,%eiz,1),%esi
    }
  }
}
 568:	83 c4 3c             	add    $0x3c,%esp
 56b:	5b                   	pop    %ebx
 56c:	5e                   	pop    %esi
 56d:	5f                   	pop    %edi
 56e:	5d                   	pop    %ebp
 56f:	c3                   	ret    
        state = '%';
 570:	bf 25 00 00 00       	mov    $0x25,%edi
 575:	e9 51 ff ff ff       	jmp    4cb <printf+0x4b>
 57a:	8d b6 00 00 00 00    	lea    0x0(%esi),%esi
        printint(fd, *ap, 16, 0);
 580:	8b 45 d4             	mov    -0x2c(%ebp),%eax
 583:	b9 10 00 00 00       	mov    $0x10,%ecx
      state = 0;
 588:	31 ff                	xor    %edi,%edi
        printint(fd, *ap, 16, 0);
 58a:	c7 04 24 00 00 00 00 	movl   $0x0,(%esp)
 591:	8b 10                	mov    (%eax),%edx
 593:	89 f0                	mov    %esi,%eax
 595:	e8 46 fe ff ff       	call   3e0 <printint>
        ap++;
 59a:	83 45 d4 04          	addl   $0x4,-0x2c(%ebp)
 59e:	e9 28 ff ff ff       	jmp    4cb <printf+0x4b>
 5a3:	90                   	nop
 5a4:	8d 74 26 00          	lea    0x0(%esi,%eiz,1),%esi
        s = (char*)*ap;
 5a8:	8b 45 d4             	mov    -0x2c(%ebp),%eax
        ap++;
 5ab:	83 45 d4 04          	addl   $0x4,-0x2c(%ebp)
        s = (char*)*ap;
 5af:	8b 38                	mov    (%eax),%edi
          s = "(null)";
 5b1:	b8 4f 08 00 00       	mov    $0x84f,%eax
 5b6:	85 ff                	test   %edi,%edi
 5b8:	0f 44 f8             	cmove  %eax,%edi
        while(*s != 0){
 5bb:	0f b6 07             	movzbl (%edi),%eax
 5be:	84 c0                	test   %al,%al
 5c0:	74 2a                	je     5ec <printf+0x16c>
 5c2:	8d b6 00 00 00 00    	lea    0x0(%esi),%esi
 5c8:	88 45 e3             	mov    %al,-0x1d(%ebp)
  write(fd, &c, 1);
 5cb:	8d 45 e3             	lea    -0x1d(%ebp),%eax
          s++;
 5ce:	83 c7 01             	add    $0x1,%edi
  write(fd, &c, 1);
 5d1:	c7 44 24 08 01 00 00 	movl   $0x1,0x8(%esp)
 5d8:	00 
 5d9:	89 44 24 04          	mov    %eax,0x4(%esp)
 5dd:	89 34 24             	mov    %esi,(%esp)
 5e0:	e8 3d fd ff ff       	call   322 <write>
        while(*s != 0){
 5e5:	0f b6 07             	movzbl (%edi),%eax
 5e8:	84 c0                	test   %al,%al
 5ea:	75 dc                	jne    5c8 <printf+0x148>
      state = 0;
 5ec:	31 ff                	xor    %edi,%edi
 5ee:	e9 d8 fe ff ff       	jmp    4cb <printf+0x4b>
 5f3:	90                   	nop
 5f4:	8d 74 26 00          	lea    0x0(%esi,%eiz,1),%esi
  write(fd, &c, 1);
 5f8:	8d 45 e5             	lea    -0x1b(%ebp),%eax
      state = 0;
 5fb:	31 ff                	xor    %edi,%edi
  write(fd, &c, 1);
 5fd:	c7 44 24 08 01 00 00 	movl   $0x1,0x8(%esp)
 604:	00 
 605:	89 44 24 04          	mov    %eax,0x4(%esp)
 609:	89 34 24             	mov    %esi,(%esp)
 60c:	c6 45 e5 25          	movb   $0x25,-0x1b(%ebp)
 610:	e8 0d fd ff ff       	call   322 <write>
 615:	e9 b1 fe ff ff       	jmp    4cb <printf+0x4b>
 61a:	8d b6 00 00 00 00    	lea    0x0(%esi),%esi
        printint(fd, *ap, 10, 1);
 620:	8b 45 d4             	mov    -0x2c(%ebp),%eax
 623:	b9 0a 00 00 00       	mov    $0xa,%ecx
      state = 0;
 628:	66 31 ff             	xor    %di,%di
        printint(fd, *ap, 10, 1);
 62b:	c7 04 24 01 00 00 00 	movl   $0x1,(%esp)
 632:	8b 10                	mov    (%eax),%edx
 634:	89 f0                	mov    %esi,%eax
 636:	e8 a5 fd ff ff       	call   3e0 <printint>
        ap++;
 63b:	83 45 d4 04          	addl   $0x4,-0x2c(%ebp)
 63f:	e9 87 fe ff ff       	jmp    4cb <printf+0x4b>
        putc(fd, *ap);
 644:	8b 45 d4             	mov    -0x2c(%ebp),%eax
      state = 0;
 647:	31 ff                	xor    %edi,%edi
        putc(fd, *ap);
 649:	8b 00                	mov    (%eax),%eax
  write(fd, &c, 1);
 64b:	c7 44 24 08 01 00 00 	movl   $0x1,0x8(%esp)
 652:	00 
 653:	89 34 24             	mov    %esi,(%esp)
        putc(fd, *ap);
 656:	88 45 e4             	mov    %al,-0x1c(%ebp)
  write(fd, &c, 1);
 659:	8d 45 e4             	lea    -0x1c(%ebp),%eax
 65c:	89 44 24 04          	mov    %eax,0x4(%esp)
 660:	e8 bd fc ff ff       	call   322 <write>
        ap++;
 665:	83 45 d4 04          	addl   $0x4,-0x2c(%ebp)
 669:	e9 5d fe ff ff       	jmp    4cb <printf+0x4b>
 66e:	66 90                	xchg   %ax,%ax

00000670 <free>:
static Header base;
static Header *freep;

void
free(void *ap)
{
 670:	55                   	push   %ebp
  Header *bp, *p;

  bp = (Header*)ap - 1;
  for(p = freep; !(bp > p && bp < p->s.ptr); p = p->s.ptr)
 671:	a1 d0 0a 00 00       	mov    0xad0,%eax
{
 676:	89 e5                	mov    %esp,%ebp
 678:	57                   	push   %edi
 679:	56                   	push   %esi
 67a:	53                   	push   %ebx
 67b:	8b 5d 08             	mov    0x8(%ebp),%ebx
    if(p >= p->s.ptr && (bp > p || bp < p->s.ptr))
 67e:	8b 08                	mov    (%eax),%ecx
  bp = (Header*)ap - 1;
 680:	8d 53 f8             	lea    -0x8(%ebx),%edx
  for(p = freep; !(bp > p && bp < p->s.ptr); p = p->s.ptr)
 683:	39 d0                	cmp    %edx,%eax
 685:	72 11                	jb     698 <free+0x28>
 687:	90                   	nop
    if(p >= p->s.ptr && (bp > p || bp < p->s.ptr))
 688:	39 c8                	cmp    %ecx,%eax
 68a:	72 04                	jb     690 <free+0x20>
 68c:	39 ca                	cmp    %ecx,%edx
 68e:	72 10                	jb     6a0 <free+0x30>
 690:	89 c8                	mov    %ecx,%eax
  for(p = freep; !(bp > p && bp < p->s.ptr); p = p->s.ptr)
 692:	39 d0                	cmp    %edx,%eax
    if(p >= p->s.ptr && (bp > p || bp < p->s.ptr))
 694:	8b 08                	mov    (%eax),%ecx
  for(p = freep; !(bp > p && bp < p->s.ptr); p = p->s.ptr)
 696:	73 f0                	jae    688 <free+0x18>
 698:	39 ca                	cmp    %ecx,%edx
 69a:	72 04                	jb     6a0 <free+0x30>
    if(p >= p->s.ptr && (bp > p || bp < p->s.ptr))
 69c:	39 c8                	cmp    %ecx,%eax
 69e:	72 f0                	jb     690 <free+0x20>
      break;
  if(bp + bp->s.size == p->s.ptr){
 6a0:	8b 73 fc             	mov    -0x4(%ebx),%esi
 6a3:	8d 3c f2             	lea    (%edx,%esi,8),%edi
 6a6:	39 cf                	cmp    %ecx,%edi
 6a8:	74 1e                	je     6c8 <free+0x58>
    bp->s.size += p->s.ptr->s.size;
    bp->s.ptr = p->s.ptr->s.ptr;
  } else
    bp->s.ptr = p->s.ptr;
 6aa:	89 4b f8             	mov    %ecx,-0x8(%ebx)
  if(p + p->s.size == bp){
 6ad:	8b 48 04             	mov    0x4(%eax),%ecx
 6b0:	8d 34 c8             	lea    (%eax,%ecx,8),%esi
 6b3:	39 f2                	cmp    %esi,%edx
 6b5:	74 28                	je     6df <free+0x6f>
    p->s.size += bp->s.size;
    p->s.ptr = bp->s.ptr;
  } else
    p->s.ptr = bp;
 6b7:	89 10                	mov    %edx,(%eax)
  freep = p;
 6b9:	a3 d0 0a 00 00       	mov    %eax,0xad0
}
 6be:	5b                   	pop    %ebx
 6bf:	5e                   	pop    %esi
 6c0:	5f                   	pop    %edi
 6c1:	5d                   	pop    %ebp
 6c2:	c3                   	ret    
 6c3:	90                   	nop
 6c4:	8d 74 26 00          	lea    0x0(%esi,%eiz,1),%esi
    bp->s.size += p->s.ptr->s.size;
 6c8:	03 71 04             	add    0x4(%ecx),%esi
 6cb:	89 73 fc             	mov    %esi,-0x4(%ebx)
    bp->s.ptr = p->s.ptr->s.ptr;
 6ce:	8b 08                	mov    (%eax),%ecx
 6d0:	8b 09                	mov    (%ecx),%ecx
 6d2:	89 4b f8             	mov    %ecx,-0x8(%ebx)
  if(p + p->s.size == bp){
 6d5:	8b 48 04             	mov    0x4(%eax),%ecx
 6d8:	8d 34 c8             	lea    (%eax,%ecx,8),%esi
 6db:	39 f2                	cmp    %esi,%edx
 6dd:	75 d8                	jne    6b7 <free+0x47>
    p->s.size += bp->s.size;
 6df:	03 4b fc             	add    -0x4(%ebx),%ecx
  freep = p;
 6e2:	a3 d0 0a 00 00       	mov    %eax,0xad0
    p->s.size += bp->s.size;
 6e7:	89 48 04             	mov    %ecx,0x4(%eax)
    p->s.ptr = bp->s.ptr;
 6ea:	8b 53 f8             	mov    -0x8(%ebx),%edx
 6ed:	89 10                	mov    %edx,(%eax)
}
 6ef:	5b                   	pop    %ebx
 6f0:	5e                   	pop    %esi
 6f1:	5f                   	pop    %edi
 6f2:	5d                   	pop    %ebp
 6f3:	c3                   	ret    
 6f4:	8d b6 00 00 00 00    	lea    0x0(%esi),%esi
 6fa:	8d bf 00 00 00 00    	lea    0x0(%edi),%edi

00000700 <malloc>:
  return freep;
}

void*
malloc(uint nbytes)
{
 700:	55                   	push   %ebp
 701:	89 e5                	mov    %esp,%ebp
 703:	57                   	push   %edi
 704:	56                   	push   %esi
 705:	53                   	push   %ebx
 706:	83 ec 1c             	sub    $0x1c,%esp
  Header *p, *prevp;
  uint nunits;

  nunits = (nbytes + sizeof(Header) - 1)/sizeof(Header) + 1;
 709:	8b 45 08             	mov    0x8(%ebp),%eax
  if((prevp = freep) == 0){
 70c:	8b 1d d0 0a 00 00    	mov    0xad0,%ebx
  nunits = (nbytes + sizeof(Header) - 1)/sizeof(Header) + 1;
 712:	8d 48 07             	lea    0x7(%eax),%ecx
 715:	c1 e9 03             	shr    $0x3,%ecx
  if((prevp = freep) == 0){
 718:	85 db                	test   %ebx,%ebx
  nunits = (nbytes + sizeof(Header) - 1)/sizeof(Header) + 1;
 71a:	8d 71 01             	lea    0x1(%ecx),%esi
  if((prevp = freep) == 0){
 71d:	0f 84 9b 00 00 00    	je     7be <malloc+0xbe>
 723:	8b 13                	mov    (%ebx),%edx
 725:	8b 7a 04             	mov    0x4(%edx),%edi
    base.s.ptr = freep = prevp = &base;
    base.s.size = 0;
  }
  for(p = prevp->s.ptr; ; prevp = p, p = p->s.ptr){
    if(p->s.size >= nunits){
 728:	39 fe                	cmp    %edi,%esi
 72a:	76 64                	jbe    790 <malloc+0x90>
 72c:	8d 04 f5 00 00 00 00 	lea    0x0(,%esi,8),%eax
  if(nu < 4096)
 733:	bb 00 80 00 00       	mov    $0x8000,%ebx
 738:	89 45 e4             	mov    %eax,-0x1c(%ebp)
 73b:	eb 0e                	jmp    74b <malloc+0x4b>
 73d:	8d 76 00             	lea    0x0(%esi),%esi
  for(p = prevp->s.ptr; ; prevp = p, p = p->s.ptr){
 740:	8b 02                	mov    (%edx),%eax
    if(p->s.size >= nunits){
 742:	8b 78 04             	mov    0x4(%eax),%edi
 745:	39 fe                	cmp    %edi,%esi
 747:	76 4f                	jbe    798 <malloc+0x98>
 749:	89 c2                	mov    %eax,%edx
        p->s.size = nunits;
      }
      freep = prevp;
      return (void*)(p + 1);
    }
    if(p == freep)
 74b:	3b 15 d0 0a 00 00    	cmp    0xad0,%edx
 751:	75 ed                	jne    740 <malloc+0x40>
  if(nu < 4096)
 753:	8b 45 e4             	mov    -0x1c(%ebp),%eax
 756:	81 fe 00 10 00 00    	cmp    $0x1000,%esi
 75c:	bf 00 10 00 00       	mov    $0x1000,%edi
 761:	0f 43 fe             	cmovae %esi,%edi
 764:	0f 42 c3             	cmovb  %ebx,%eax
  p = sbrk(nu * sizeof(Header));
 767:	89 04 24             	mov    %eax,(%esp)
 76a:	e8 1b fc ff ff       	call   38a <sbrk>
  if(p == (char*)-1)
 76f:	83 f8 ff             	cmp    $0xffffffff,%eax
 772:	74 18                	je     78c <malloc+0x8c>
  hp->s.size = nu;
 774:	89 78 04             	mov    %edi,0x4(%eax)
  free((void*)(hp + 1));
 777:	83 c0 08             	add    $0x8,%eax
 77a:	89 04 24             	mov    %eax,(%esp)
 77d:	e8 ee fe ff ff       	call   670 <free>
  return freep;
 782:	8b 15 d0 0a 00 00    	mov    0xad0,%edx
      if((p = morecore(nunits)) == 0)
 788:	85 d2                	test   %edx,%edx
 78a:	75 b4                	jne    740 <malloc+0x40>
        return 0;
 78c:	31 c0                	xor    %eax,%eax
 78e:	eb 20                	jmp    7b0 <malloc+0xb0>
    if(p->s.size >= nunits){
 790:	89 d0                	mov    %edx,%eax
 792:	89 da                	mov    %ebx,%edx
 794:	8d 74 26 00          	lea    0x0(%esi,%eiz,1),%esi
      if(p->s.size == nunits)
 798:	39 fe                	cmp    %edi,%esi
 79a:	74 1c                	je     7b8 <malloc+0xb8>
        p->s.size -= nunits;
 79c:	29 f7                	sub    %esi,%edi
 79e:	89 78 04             	mov    %edi,0x4(%eax)
        p += p->s.size;
 7a1:	8d 04 f8             	lea    (%eax,%edi,8),%eax
        p->s.size = nunits;
 7a4:	89 70 04             	mov    %esi,0x4(%eax)
      freep = prevp;
 7a7:	89 15 d0 0a 00 00    	mov    %edx,0xad0
      return (void*)(p + 1);
 7ad:	83 c0 08             	add    $0x8,%eax
  }
}
 7b0:	83 c4 1c             	add    $0x1c,%esp
 7b3:	5b                   	pop    %ebx
 7b4:	5e                   	pop    %esi
 7b5:	5f                   	pop    %edi
 7b6:	5d                   	pop    %ebp
 7b7:	c3                   	ret    
        prevp->s.ptr = p->s.ptr;
 7b8:	8b 08                	mov    (%eax),%ecx
 7ba:	89 0a                	mov    %ecx,(%edx)
 7bc:	eb e9                	jmp    7a7 <malloc+0xa7>
    base.s.ptr = freep = prevp = &base;
 7be:	c7 05 d0 0a 00 00 d4 	movl   $0xad4,0xad0
 7c5:	0a 00 00 
    base.s.size = 0;
 7c8:	ba d4 0a 00 00       	mov    $0xad4,%edx
    base.s.ptr = freep = prevp = &base;
 7cd:	c7 05 d4 0a 00 00 d4 	movl   $0xad4,0xad4
 7d4:	0a 00 00 
    base.s.size = 0;
 7d7:	c7 05 d8 0a 00 00 00 	movl   $0x0,0xad8
 7de:	00 00 00 
 7e1:	e9 46 ff ff ff       	jmp    72c <malloc+0x2c>
